target datalayout = "e-m:e-p270:32:32-p271:32:32-p272:64:64-i64:64-i128:128-f80:128-n8:16:32:64-S128"
target triple = "x86_64-pc-linux-gnu"

%struct.luaL_Reg = type { ptr, ptr }

@.str = private unnamed_addr constant [3 x i8] c"os\00", align 1
@sandbox_syslib = internal constant [2 x %struct.luaL_Reg] [%struct.luaL_Reg { ptr @.str.1, ptr @os_clock }, %struct.luaL_Reg zeroinitializer], align 16
@.str.1 = private unnamed_addr constant [6 x i8] c"clock\00", align 1

; Function Attrs: nounwind uwtable
define dso_local i32 @luaopen_os(ptr noundef %0) #0 {
  %2 = alloca ptr, align 8
  store ptr %0, ptr %2, align 8, !tbaa !4
  %3 = load ptr, ptr %2, align 8, !tbaa !4
  call void @luaL_register(ptr noundef %3, ptr noundef @.str, ptr noundef @sandbox_syslib)
  ret i32 1
}

declare void @luaL_register(ptr noundef, ptr noundef, ptr noundef) #1

; Function Attrs: nounwind uwtable
define internal i32 @os_clock(ptr noundef %0) #0 {
  %2 = alloca ptr, align 8
  store ptr %0, ptr %2, align 8, !tbaa !4
  %3 = load ptr, ptr %2, align 8, !tbaa !4
  %4 = call i64 @clock() #3
  %5 = sitofp i64 %4 to double
  %6 = fdiv double %5, 1.000000e+06
  call void @lua_pushnumber(ptr noundef %3, double noundef %6)
  ret i32 1
}

declare void @lua_pushnumber(ptr noundef, double noundef) #1

; Function Attrs: nounwind
declare i64 @clock() #2


!llvm.module.flags = !{!0, !1, !2, !3}

!0 = !{i32 1, !"wchar_size", i32 4}
!1 = !{i32 8, !"PIC Level", i32 2}
!2 = !{i32 7, !"PIE Level", i32 2}
!3 = !{i32 7, !"uwtable", i32 2}
!4 = !{!5, !5, i64 0}
!5 = !{!"p1 _ZTS9lua_State", !6, i64 0}
!6 = !{!"any pointer", !7, i64 0}
!7 = !{!"omnipotent char", !8, i64 0}
!8 = !{!"Simple C/C++ TBAA"}
