; ModuleID = 'bench/redis/original/loslib.ll'
source_filename = "bench/redis/original/loslib.ll"
target datalayout = "e-m:e-p270:32:32-p271:32:32-p272:64:64-i64:64-i128:128-f80:128-n8:16:32:64-S128"
target triple = "x86_64-pc-linux-gnu"

%struct.luaL_Reg = type { ptr, ptr }

@.str = private unnamed_addr constant [3 x i8] c"os\00", align 1
@sandbox_syslib = internal constant [2 x %struct.luaL_Reg] [%struct.luaL_Reg { ptr @.str.1, ptr @os_clock }, %struct.luaL_Reg zeroinitializer], align 16
@.str.1 = private unnamed_addr constant [6 x i8] c"clock\00", align 1

; Function Attrs: nounwind uwtable
define dso_local noundef i32 @luaopen_os(ptr noundef %0) local_unnamed_addr #0 {
  tail call void @luaL_register(ptr noundef %0, ptr noundef nonnull @.str, ptr noundef nonnull @sandbox_syslib) #3
  ret i32 1
}

declare void @luaL_register(ptr noundef, ptr noundef, ptr noundef) local_unnamed_addr #1

; Function Attrs: nounwind uwtable
define internal noundef i32 @os_clock(ptr noundef %0) #0 {
  %2 = tail call i64 @clock() #3
  %3 = sitofp i64 %2 to double
  %4 = fdiv double %3, 1.000000e+06
  tail call void @lua_pushnumber(ptr noundef %0, double noundef %4) #3
  ret i32 1
}

declare void @lua_pushnumber(ptr noundef, double noundef) local_unnamed_addr #1

; Function Attrs: nounwind
declare i64 @clock() local_unnamed_addr #2


!llvm.module.flags = !{!0, !1, !2, !3}

!0 = !{i32 1, !"wchar_size", i32 4}
!1 = !{i32 8, !"PIC Level", i32 2}
!2 = !{i32 7, !"PIE Level", i32 2}
!3 = !{i32 7, !"uwtable", i32 2}
